target datalayout = "e-m:e-p270:32:32-p271:32:32-p272:64:64-i64:64-i128:128-f80:128-n8:16:32:64-S128"
target triple = "x86_64-pc-linux-gnu"

%struct.nghttp2_buf = type { ptr, ptr, ptr, ptr, ptr }
%struct.nghttp2_bufs = type { ptr, ptr, ptr, i64, i64, i64, i64, i64 }
%struct.nghttp2_buf_chain = type { ptr, %struct.nghttp2_buf }

; Function Attrs: inlinehint nounwind uwtable
define internal i64 @nghttp2_max_size(i64 noundef %0, i64 noundef %1) #3 {
  %3 = alloca i64, align 8
  %4 = alloca i64, align 8
  store i64 %0, ptr %3, align 8, !tbaa !14
  store i64 %1, ptr %4, align 8, !tbaa !14
  %5 = load i64, ptr %3, align 8, !tbaa !14
  %6 = load i64, ptr %4, align 8, !tbaa !14
  %7 = icmp ult i64 %5, %6
  br i1 %7, label %8, label %10

8:                                                ; preds = %2
  %9 = load i64, ptr %4, align 8, !tbaa !14
  br label %12

10:                                               ; preds = %2
  %11 = load i64, ptr %3, align 8, !tbaa !14
  br label %12

12:                                               ; preds = %10, %8
  %13 = phi i64 [ %9, %8 ], [ %11, %10 ]
  ret i64 %13
}

; Function Attrs: nounwind uwtable
define hidden void @nghttp2_buf_free(ptr noundef %0, ptr noundef %1) #0 {
  %3 = alloca ptr, align 8
  %4 = alloca ptr, align 8
  store ptr %0, ptr %3, align 8, !tbaa !3
  store ptr %1, ptr %4, align 8, !tbaa !3
  %5 = load ptr, ptr %3, align 8, !tbaa !3
  %6 = icmp eq ptr %5, null
  br i1 %6, label %7, label %8

7:                                                ; preds = %2
  br label %15

8:                                                ; preds = %2
  %9 = load ptr, ptr %4, align 8, !tbaa !3
  %10 = load ptr, ptr %3, align 8, !tbaa !3
  %11 = getelementptr inbounds nuw %struct.nghttp2_buf, ptr %10, i32 0, i32 0
  %12 = load ptr, ptr %11, align 8, !tbaa !7
  call void @nghttp2_mem_free(ptr noundef %9, ptr noundef %12)
  %13 = load ptr, ptr %3, align 8, !tbaa !3
  %14 = getelementptr inbounds nuw %struct.nghttp2_buf, ptr %13, i32 0, i32 0
  store ptr null, ptr %14, align 8, !tbaa !7
  br label %15

15:                                               ; preds = %8, %7
  ret void
}

; Function Attrs: nounwind uwtable
define hidden i32 @nghttp2_buf_reserve(ptr noundef %0, i64 noundef %1, ptr noundef %2) #0 {
  %4 = alloca i32, align 4
  %5 = alloca ptr, align 8
  %6 = alloca i64, align 8
  %7 = alloca ptr, align 8
  %8 = alloca ptr, align 8
  %9 = alloca i64, align 8
  %10 = alloca i32, align 4
  store ptr %0, ptr %5, align 8, !tbaa !3
  store i64 %1, ptr %6, align 8, !tbaa !14
  store ptr %2, ptr %7, align 8, !tbaa !3
  call void @llvm.lifetime.start.p0(i64 8, ptr %8) #4
  call void @llvm.lifetime.start.p0(i64 8, ptr %9) #4
  %11 = load ptr, ptr %5, align 8, !tbaa !3
  %12 = getelementptr inbounds nuw %struct.nghttp2_buf, ptr %11, i32 0, i32 1
  %13 = load ptr, ptr %12, align 8, !tbaa !10
  %14 = load ptr, ptr %5, align 8, !tbaa !3
  %15 = getelementptr inbounds nuw %struct.nghttp2_buf, ptr %14, i32 0, i32 0
  %16 = load ptr, ptr %15, align 8, !tbaa !7
  %17 = ptrtoint ptr %13 to i64
  %18 = ptrtoint ptr %16 to i64
  %19 = sub i64 %17, %18
  store i64 %19, ptr %9, align 8, !tbaa !14
  %20 = load i64, ptr %9, align 8, !tbaa !14
  %21 = load i64, ptr %6, align 8, !tbaa !14
  %22 = icmp uge i64 %20, %21
  br i1 %22, label %23, label %24

23:                                               ; preds = %3
  store i32 0, ptr %4, align 4
  store i32 1, ptr %10, align 4
  br label %86

24:                                               ; preds = %3
  %25 = load i64, ptr %6, align 8, !tbaa !14
  %26 = load i64, ptr %9, align 8, !tbaa !14
  %27 = mul i64 %26, 2
  %28 = call i64 @nghttp2_max_size(i64 noundef %25, i64 noundef %27)
  store i64 %28, ptr %6, align 8, !tbaa !14
  %29 = load ptr, ptr %7, align 8, !tbaa !3
  %30 = load ptr, ptr %5, align 8, !tbaa !3
  %31 = getelementptr inbounds nuw %struct.nghttp2_buf, ptr %30, i32 0, i32 0
  %32 = load ptr, ptr %31, align 8, !tbaa !7
  %33 = load i64, ptr %6, align 8, !tbaa !14
  %34 = call ptr @nghttp2_mem_realloc(ptr noundef %29, ptr noundef %32, i64 noundef %33)
  store ptr %34, ptr %8, align 8, !tbaa !16
  %35 = load ptr, ptr %8, align 8, !tbaa !16
  %36 = icmp eq ptr %35, null
  br i1 %36, label %37, label %38

37:                                               ; preds = %24
  store i32 -901, ptr %4, align 4
  store i32 1, ptr %10, align 4
  br label %86

38:                                               ; preds = %24
  %39 = load ptr, ptr %8, align 8, !tbaa !16
  %40 = load ptr, ptr %5, align 8, !tbaa !3
  %41 = getelementptr inbounds nuw %struct.nghttp2_buf, ptr %40, i32 0, i32 2
  %42 = load ptr, ptr %41, align 8, !tbaa !11
  %43 = load ptr, ptr %5, align 8, !tbaa !3
  %44 = getelementptr inbounds nuw %struct.nghttp2_buf, ptr %43, i32 0, i32 0
  %45 = load ptr, ptr %44, align 8, !tbaa !7
  %46 = ptrtoint ptr %42 to i64
  %47 = ptrtoint ptr %45 to i64
  %48 = sub i64 %46, %47
  %49 = getelementptr inbounds i8, ptr %39, i64 %48
  %50 = load ptr, ptr %5, align 8, !tbaa !3
  %51 = getelementptr inbounds nuw %struct.nghttp2_buf, ptr %50, i32 0, i32 2
  store ptr %49, ptr %51, align 8, !tbaa !11
  %52 = load ptr, ptr %8, align 8, !tbaa !16
  %53 = load ptr, ptr %5, align 8, !tbaa !3
  %54 = getelementptr inbounds nuw %struct.nghttp2_buf, ptr %53, i32 0, i32 3
  %55 = load ptr, ptr %54, align 8, !tbaa !12
  %56 = load ptr, ptr %5, align 8, !tbaa !3
  %57 = getelementptr inbounds nuw %struct.nghttp2_buf, ptr %56, i32 0, i32 0
  %58 = load ptr, ptr %57, align 8, !tbaa !7
  %59 = ptrtoint ptr %55 to i64
  %60 = ptrtoint ptr %58 to i64
  %61 = sub i64 %59, %60
  %62 = getelementptr inbounds i8, ptr %52, i64 %61
  %63 = load ptr, ptr %5, align 8, !tbaa !3
  %64 = getelementptr inbounds nuw %struct.nghttp2_buf, ptr %63, i32 0, i32 3
  store ptr %62, ptr %64, align 8, !tbaa !12
  %65 = load ptr, ptr %8, align 8, !tbaa !16
  %66 = load ptr, ptr %5, align 8, !tbaa !3
  %67 = getelementptr inbounds nuw %struct.nghttp2_buf, ptr %66, i32 0, i32 4
  %68 = load ptr, ptr %67, align 8, !tbaa !13
  %69 = load ptr, ptr %5, align 8, !tbaa !3
  %70 = getelementptr inbounds nuw %struct.nghttp2_buf, ptr %69, i32 0, i32 0
  %71 = load ptr, ptr %70, align 8, !tbaa !7
  %72 = ptrtoint ptr %68 to i64
  %73 = ptrtoint ptr %71 to i64
  %74 = sub i64 %72, %73
  %75 = getelementptr inbounds i8, ptr %65, i64 %74
  %76 = load ptr, ptr %5, align 8, !tbaa !3
  %77 = getelementptr inbounds nuw %struct.nghttp2_buf, ptr %76, i32 0, i32 4
  store ptr %75, ptr %77, align 8, !tbaa !13
  %78 = load ptr, ptr %8, align 8, !tbaa !16
  %79 = load ptr, ptr %5, align 8, !tbaa !3
  %80 = getelementptr inbounds nuw %struct.nghttp2_buf, ptr %79, i32 0, i32 0
  store ptr %78, ptr %80, align 8, !tbaa !7
  %81 = load ptr, ptr %8, align 8, !tbaa !16
  %82 = load i64, ptr %6, align 8, !tbaa !14
  %83 = getelementptr inbounds nuw i8, ptr %81, i64 %82
  %84 = load ptr, ptr %5, align 8, !tbaa !3
  %85 = getelementptr inbounds nuw %struct.nghttp2_buf, ptr %84, i32 0, i32 1
  store ptr %83, ptr %85, align 8, !tbaa !10
  store i32 0, ptr %4, align 4
  store i32 1, ptr %10, align 4
  br label %86

86:                                               ; preds = %38, %37, %23
  call void @llvm.lifetime.end.p0(i64 8, ptr %9) #4
  call void @llvm.lifetime.end.p0(i64 8, ptr %8) #4
  %87 = load i32, ptr %4, align 4
  ret i32 %87
}

; Function Attrs: nounwind uwtable
define hidden void @nghttp2_buf_init(ptr noundef %0) #0 {
  %2 = alloca ptr, align 8
  store ptr %0, ptr %2, align 8, !tbaa !3
  %3 = load ptr, ptr %2, align 8, !tbaa !3
  %4 = getelementptr inbounds nuw %struct.nghttp2_buf, ptr %3, i32 0, i32 0
  store ptr null, ptr %4, align 8, !tbaa !7
  %5 = load ptr, ptr %2, align 8, !tbaa !3
  %6 = getelementptr inbounds nuw %struct.nghttp2_buf, ptr %5, i32 0, i32 1
  store ptr null, ptr %6, align 8, !tbaa !10
  %7 = load ptr, ptr %2, align 8, !tbaa !3
  %8 = getelementptr inbounds nuw %struct.nghttp2_buf, ptr %7, i32 0, i32 2
  store ptr null, ptr %8, align 8, !tbaa !11
  %9 = load ptr, ptr %2, align 8, !tbaa !3
  %10 = getelementptr inbounds nuw %struct.nghttp2_buf, ptr %9, i32 0, i32 3
  store ptr null, ptr %10, align 8, !tbaa !12
  %11 = load ptr, ptr %2, align 8, !tbaa !3
  %12 = getelementptr inbounds nuw %struct.nghttp2_buf, ptr %11, i32 0, i32 4
  store ptr null, ptr %12, align 8, !tbaa !13
  ret void
}

; Function Attrs: nounwind uwtable
define internal void @buf_chain_del(ptr noundef %0, ptr noundef %1) #0 {
  %3 = alloca ptr, align 8
  %4 = alloca ptr, align 8
  store ptr %0, ptr %3, align 8, !tbaa !23
  store ptr %1, ptr %4, align 8, !tbaa !3
  %5 = load ptr, ptr %3, align 8, !tbaa !23
  %6 = getelementptr inbounds nuw %struct.nghttp2_buf_chain, ptr %5, i32 0, i32 1
  %7 = load ptr, ptr %4, align 8, !tbaa !3
  call void @nghttp2_buf_free(ptr noundef %6, ptr noundef %7)
  %8 = load ptr, ptr %4, align 8, !tbaa !3
  %9 = load ptr, ptr %3, align 8, !tbaa !23
  call void @nghttp2_mem_free(ptr noundef %8, ptr noundef %9)
  ret void
}

; Function Attrs: nounwind uwtable
define hidden i32 @nghttp2_buf_init2(ptr noundef %0, i64 noundef %1, ptr noundef %2) #0 {
  %4 = alloca ptr, align 8
  %5 = alloca i64, align 8
  %6 = alloca ptr, align 8
  store ptr %0, ptr %4, align 8, !tbaa !3
  store i64 %1, ptr %5, align 8, !tbaa !14
  store ptr %2, ptr %6, align 8, !tbaa !3
  %7 = load ptr, ptr %4, align 8, !tbaa !3
  call void @nghttp2_buf_init(ptr noundef %7)
  %8 = load ptr, ptr %4, align 8, !tbaa !3
  %9 = load i64, ptr %5, align 8, !tbaa !14
  %10 = load ptr, ptr %6, align 8, !tbaa !3
  %11 = call i32 @nghttp2_buf_reserve(ptr noundef %8, i64 noundef %9, ptr noundef %10)
  ret i32 %11
}

; Function Attrs: nounwind uwtable
define hidden void @nghttp2_bufs_free(ptr noundef %0) #0 {
  %2 = alloca ptr, align 8
  %3 = alloca ptr, align 8
  %4 = alloca ptr, align 8
  %5 = alloca i32, align 4
  store ptr %0, ptr %2, align 8, !tbaa !3
  call void @llvm.lifetime.start.p0(i64 8, ptr %3) #4
  call void @llvm.lifetime.start.p0(i64 8, ptr %4) #4
  %6 = load ptr, ptr %2, align 8, !tbaa !3
  %7 = icmp eq ptr %6, null
  br i1 %7, label %8, label %9

8:                                                ; preds = %1
  store i32 1, ptr %5, align 4
  br label %28

9:                                                ; preds = %1
  %10 = load ptr, ptr %2, align 8, !tbaa !3
  %11 = getelementptr inbounds nuw %struct.nghttp2_bufs, ptr %10, i32 0, i32 0
  %12 = load ptr, ptr %11, align 8, !tbaa !24
  store ptr %12, ptr %3, align 8, !tbaa !23
  br label %13

13:                                               ; preds = %16, %9
  %14 = load ptr, ptr %3, align 8, !tbaa !23
  %15 = icmp ne ptr %14, null
  br i1 %15, label %16, label %25

16:                                               ; preds = %13
  %17 = load ptr, ptr %3, align 8, !tbaa !23
  %18 = getelementptr inbounds nuw %struct.nghttp2_buf_chain, ptr %17, i32 0, i32 0
  %19 = load ptr, ptr %18, align 8, !tbaa !36
  store ptr %19, ptr %4, align 8, !tbaa !23
  %20 = load ptr, ptr %3, align 8, !tbaa !23
  %21 = load ptr, ptr %2, align 8, !tbaa !3
  %22 = getelementptr inbounds nuw %struct.nghttp2_bufs, ptr %21, i32 0, i32 2
  %23 = load ptr, ptr %22, align 8, !tbaa !19
  call void @buf_chain_del(ptr noundef %20, ptr noundef %23)
  %24 = load ptr, ptr %4, align 8, !tbaa !23
  store ptr %24, ptr %3, align 8, !tbaa !23
  br label %13, !llvm.loop !37

25:                                               ; preds = %13
  %26 = load ptr, ptr %2, align 8, !tbaa !3
  %27 = getelementptr inbounds nuw %struct.nghttp2_bufs, ptr %26, i32 0, i32 0
  store ptr null, ptr %27, align 8, !tbaa !24
  store i32 0, ptr %5, align 4
  br label %28

28:                                               ; preds = %25, %8
  call void @llvm.lifetime.end.p0(i64 8, ptr %4) #4
  call void @llvm.lifetime.end.p0(i64 8, ptr %3) #4
  %29 = load i32, ptr %5, align 4
  switch i32 %29, label %31 [
    i32 0, label %30
    i32 1, label %30
  ]

30:                                               ; preds = %28, %28
  ret void

31:                                               ; preds = %28
  unreachable
}

; Function Attrs: nounwind uwtable
define internal i32 @buf_chain_new(ptr noundef %0, i64 noundef %1, ptr noundef %2) #0 {
  %4 = alloca i32, align 4
  %5 = alloca ptr, align 8
  %6 = alloca i64, align 8
  %7 = alloca ptr, align 8
  %8 = alloca i32, align 4
  %9 = alloca i32, align 4
  store ptr %0, ptr %5, align 8, !tbaa !33
  store i64 %1, ptr %6, align 8, !tbaa !14
  store ptr %2, ptr %7, align 8, !tbaa !3
  call void @llvm.lifetime.start.p0(i64 4, ptr %8) #4
  %10 = load ptr, ptr %7, align 8, !tbaa !3
  %11 = call ptr @nghttp2_mem_malloc(ptr noundef %10, i64 noundef 48)
  %12 = load ptr, ptr %5, align 8, !tbaa !33
  store ptr %11, ptr %12, align 8, !tbaa !23
  %13 = load ptr, ptr %5, align 8, !tbaa !33
  %14 = load ptr, ptr %13, align 8, !tbaa !23
  %15 = icmp eq ptr %14, null
  br i1 %15, label %16, label %17

16:                                               ; preds = %3
  store i32 -901, ptr %4, align 4
  store i32 1, ptr %9, align 4
  br label %34

17:                                               ; preds = %3
  %18 = load ptr, ptr %5, align 8, !tbaa !33
  %19 = load ptr, ptr %18, align 8, !tbaa !23
  %20 = getelementptr inbounds nuw %struct.nghttp2_buf_chain, ptr %19, i32 0, i32 0
  store ptr null, ptr %20, align 8, !tbaa !36
  %21 = load ptr, ptr %5, align 8, !tbaa !33
  %22 = load ptr, ptr %21, align 8, !tbaa !23
  %23 = getelementptr inbounds nuw %struct.nghttp2_buf_chain, ptr %22, i32 0, i32 1
  %24 = load i64, ptr %6, align 8, !tbaa !14
  %25 = load ptr, ptr %7, align 8, !tbaa !3
  %26 = call i32 @nghttp2_buf_init2(ptr noundef %23, i64 noundef %24, ptr noundef %25)
  store i32 %26, ptr %8, align 4, !tbaa !17
  %27 = load i32, ptr %8, align 4, !tbaa !17
  %28 = icmp ne i32 %27, 0
  br i1 %28, label %29, label %33

29:                                               ; preds = %17
  %30 = load ptr, ptr %7, align 8, !tbaa !3
  %31 = load ptr, ptr %5, align 8, !tbaa !33
  %32 = load ptr, ptr %31, align 8, !tbaa !23
  call void @nghttp2_mem_free(ptr noundef %30, ptr noundef %32)
  store i32 -901, ptr %4, align 4
  store i32 1, ptr %9, align 4
  br label %34

33:                                               ; preds = %17
  store i32 0, ptr %4, align 4
  store i32 1, ptr %9, align 4
  br label %34

34:                                               ; preds = %33, %29, %16
  call void @llvm.lifetime.end.p0(i64 4, ptr %8) #4
  %35 = load i32, ptr %4, align 4
  ret i32 %35
}

; Function Attrs: nounwind uwtable
define hidden i32 @nghttp2_bufs_realloc(ptr noundef %0, i64 noundef %1) #0 {
  %3 = alloca i32, align 4
  %4 = alloca ptr, align 8
  %5 = alloca i64, align 8
  %6 = alloca i32, align 4
  %7 = alloca ptr, align 8
  %8 = alloca i32, align 4
  store ptr %0, ptr %4, align 8, !tbaa !3
  store i64 %1, ptr %5, align 8, !tbaa !14
  call void @llvm.lifetime.start.p0(i64 4, ptr %6) #4
  call void @llvm.lifetime.start.p0(i64 8, ptr %7) #4
  %9 = load i64, ptr %5, align 8, !tbaa !14
  %10 = load ptr, ptr %4, align 8, !tbaa !3
  %11 = getelementptr inbounds nuw %struct.nghttp2_bufs, ptr %10, i32 0, i32 7
  %12 = load i64, ptr %11, align 8, !tbaa !22
  %13 = icmp ult i64 %9, %12
  br i1 %13, label %14, label %15

14:                                               ; preds = %2
  store i32 -501, ptr %3, align 4
  store i32 1, ptr %8, align 4
  br label %63

15:                                               ; preds = %2
  %16 = load i64, ptr %5, align 8, !tbaa !14
  %17 = load ptr, ptr %4, align 8, !tbaa !3
  %18 = getelementptr inbounds nuw %struct.nghttp2_bufs, ptr %17, i32 0, i32 2
  %19 = load ptr, ptr %18, align 8, !tbaa !19
  %20 = call i32 @buf_chain_new(ptr noundef %7, i64 noundef %16, ptr noundef %19)
  store i32 %20, ptr %6, align 4, !tbaa !17
  %21 = load i32, ptr %6, align 4, !tbaa !17
  %22 = icmp ne i32 %21, 0
  br i1 %22, label %23, label %25

23:                                               ; preds = %15
  %24 = load i32, ptr %6, align 4, !tbaa !17
  store i32 %24, ptr %3, align 4
  store i32 1, ptr %8, align 4
  br label %63

25:                                               ; preds = %15
  %26 = load ptr, ptr %4, align 8, !tbaa !3
  call void @nghttp2_bufs_free(ptr noundef %26)
  %27 = load ptr, ptr %7, align 8, !tbaa !23
  %28 = load ptr, ptr %4, align 8, !tbaa !3
  %29 = getelementptr inbounds nuw %struct.nghttp2_bufs, ptr %28, i32 0, i32 0
  store ptr %27, ptr %29, align 8, !tbaa !24
  %30 = load ptr, ptr %4, align 8, !tbaa !3
  %31 = getelementptr inbounds nuw %struct.nghttp2_bufs, ptr %30, i32 0, i32 0
  %32 = load ptr, ptr %31, align 8, !tbaa !24
  %33 = load ptr, ptr %4, align 8, !tbaa !3
  %34 = getelementptr inbounds nuw %struct.nghttp2_bufs, ptr %33, i32 0, i32 1
  store ptr %32, ptr %34, align 8, !tbaa !25
  br label %35

35:                                               ; preds = %25
  %36 = load ptr, ptr %4, align 8, !tbaa !3
  %37 = getelementptr inbounds nuw %struct.nghttp2_bufs, ptr %36, i32 0, i32 7
  %38 = load i64, ptr %37, align 8, !tbaa !22
  %39 = load ptr, ptr %4, align 8, !tbaa !3
  %40 = getelementptr inbounds nuw %struct.nghttp2_bufs, ptr %39, i32 0, i32 1
  %41 = load ptr, ptr %40, align 8, !tbaa !25
  %42 = getelementptr inbounds nuw %struct.nghttp2_buf_chain, ptr %41, i32 0, i32 1
  %43 = getelementptr inbounds nuw %struct.nghttp2_buf, ptr %42, i32 0, i32 2
  %44 = load ptr, ptr %43, align 8, !tbaa !26
  %45 = getelementptr inbounds nuw i8, ptr %44, i64 %38
  store ptr %45, ptr %43, align 8, !tbaa !26
  %46 = load ptr, ptr %4, align 8, !tbaa !3
  %47 = getelementptr inbounds nuw %struct.nghttp2_bufs, ptr %46, i32 0, i32 7
  %48 = load i64, ptr %47, align 8, !tbaa !22
  %49 = load ptr, ptr %4, align 8, !tbaa !3
  %50 = getelementptr inbounds nuw %struct.nghttp2_bufs, ptr %49, i32 0, i32 1
  %51 = load ptr, ptr %50, align 8, !tbaa !25
  %52 = getelementptr inbounds nuw %struct.nghttp2_buf_chain, ptr %51, i32 0, i32 1
  %53 = getelementptr inbounds nuw %struct.nghttp2_buf, ptr %52, i32 0, i32 3
  %54 = load ptr, ptr %53, align 8, !tbaa !28
  %55 = getelementptr inbounds nuw i8, ptr %54, i64 %48
  store ptr %55, ptr %53, align 8, !tbaa !28
  br label %56

56:                                               ; preds = %35
  br label %57

57:                                               ; preds = %56
  %58 = load i64, ptr %5, align 8, !tbaa !14
  %59 = load ptr, ptr %4, align 8, !tbaa !3
  %60 = getelementptr inbounds nuw %struct.nghttp2_bufs, ptr %59, i32 0, i32 3
  store i64 %58, ptr %60, align 8, !tbaa !29
  %61 = load ptr, ptr %4, align 8, !tbaa !3
  %62 = getelementptr inbounds nuw %struct.nghttp2_bufs, ptr %61, i32 0, i32 5
  store i64 1, ptr %62, align 8, !tbaa !30
  store i32 0, ptr %3, align 4
  store i32 1, ptr %8, align 4
  br label %63

63:                                               ; preds = %57, %23, %14
  call void @llvm.lifetime.end.p0(i64 8, ptr %7) #4
  call void @llvm.lifetime.end.p0(i64 4, ptr %6) #4
  %64 = load i32, ptr %3, align 4
  ret i32 %64
}