; Function Attrs: nounwind uwtable
define hidden range(i32 -901, 1) i32 @nghttp2_bufs_realloc(ptr noundef captures(none) %0, i64 noundef %1) local_unnamed_addr #1 {
  %3 = getelementptr inbounds nuw i8, ptr %0, i64 56
  %4 = load i64, ptr %3, align 8, !tbaa !17
  %5 = icmp ult i64 %1, %4
  br i1 %5, label %buf_chain_new.exit, label %6

6:                                                ; preds = %2
  %7 = getelementptr inbounds nuw i8, ptr %0, i64 16
  %8 = load ptr, ptr %7, align 8, !tbaa !13
  %9 = tail call ptr @nghttp2_mem_malloc(ptr noundef %8, i64 noundef 48) #10
  %10 = icmp eq ptr %9, null
  br i1 %10, label %buf_chain_new.exit, label %11

11:                                               ; preds = %6
  %12 = getelementptr inbounds nuw i8, ptr %9, i64 8
  %13 = getelementptr inbounds nuw i8, ptr %9, i64 16
  %.not.i.not.i.i = icmp eq i64 %1, 0
  tail call void @llvm.memset.p0.i64(ptr noundef nonnull align 8 dereferenceable(48) %9, i8 0, i64 48, i1 false)
  br i1 %.not.i.not.i.i, label %36, label %14

14:                                               ; preds = %11
  %15 = tail call ptr @nghttp2_mem_realloc(ptr noundef %8, ptr noundef null, i64 noundef %1) #10
  %16 = icmp eq ptr %15, null
  br i1 %16, label %nghttp2_buf_init2.exit.i, label %17

17:                                               ; preds = %14
  %18 = getelementptr inbounds nuw i8, ptr %9, i64 24
  %19 = load ptr, ptr %18, align 8, !tbaa !3
  %20 = load ptr, ptr %12, align 8, !tbaa !9
  %21 = ptrtoint ptr %19 to i64
  %22 = ptrtoint ptr %20 to i64
  %23 = sub i64 %21, %22
  %24 = getelementptr inbounds i8, ptr %15, i64 %23
  store ptr %24, ptr %18, align 8, !tbaa !3
  %25 = getelementptr inbounds nuw i8, ptr %9, i64 32
  %26 = load ptr, ptr %25, align 8, !tbaa !10
  %27 = ptrtoint ptr %26 to i64
  %28 = sub i64 %27, %22
  %29 = getelementptr inbounds i8, ptr %15, i64 %28
  store ptr %29, ptr %25, align 8, !tbaa !10
  %30 = getelementptr inbounds nuw i8, ptr %9, i64 40
  %31 = load ptr, ptr %30, align 8, !tbaa !11
  %32 = ptrtoint ptr %31 to i64
  %33 = sub i64 %32, %22
  %34 = getelementptr inbounds i8, ptr %15, i64 %33
  store ptr %34, ptr %30, align 8, !tbaa !11
  store ptr %15, ptr %12, align 8, !tbaa !9
  %35 = getelementptr inbounds nuw i8, ptr %15, i64 %1
  store ptr %35, ptr %13, align 8, !tbaa !12
  br label %36

nghttp2_buf_init2.exit.i:                         ; preds = %14
  tail call void @nghttp2_mem_free(ptr noundef %8, ptr noundef nonnull %9) #10
  br label %buf_chain_new.exit

36:                                               ; preds = %11, %17
  %37 = phi ptr [ null, %11 ], [ %29, %17 ]
  %38 = phi ptr [ null, %11 ], [ %24, %17 ]
  %39 = load ptr, ptr %0, align 8, !tbaa !18
  %.not9.i = icmp eq ptr %39, null
  br i1 %.not9.i, label %nghttp2_bufs_free.exit, label %.lr.ph.i

.lr.ph.i:                                         ; preds = %36, %.lr.ph.i
  %.010.i = phi ptr [ %40, %.lr.ph.i ], [ %39, %36 ]
  %40 = load ptr, ptr %.010.i, align 8, !tbaa !27
  %41 = load ptr, ptr %7, align 8, !tbaa !13
  %42 = getelementptr inbounds nuw i8, ptr %.010.i, i64 8
  %43 = load ptr, ptr %42, align 8, !tbaa !9
  tail call void @nghttp2_mem_free(ptr noundef %41, ptr noundef %43) #10
  store ptr null, ptr %42, align 8, !tbaa !9
  tail call void @nghttp2_mem_free(ptr noundef %41, ptr noundef nonnull %.010.i) #10
  %.not.i = icmp eq ptr %40, null
  br i1 %.not.i, label %nghttp2_bufs_free.exit.loopexit, label %.lr.ph.i, !llvm.loop !28

nghttp2_bufs_free.exit.loopexit:                  ; preds = %.lr.ph.i
  %.phi.trans.insert = getelementptr inbounds nuw i8, ptr %9, i64 24
  %.pre = load ptr, ptr %.phi.trans.insert, align 8, !tbaa !20
  %.phi.trans.insert23 = getelementptr inbounds nuw i8, ptr %9, i64 32
  %.pre24 = load ptr, ptr %.phi.trans.insert23, align 8, !tbaa !22
  br label %nghttp2_bufs_free.exit

nghttp2_bufs_free.exit:                           ; preds = %nghttp2_bufs_free.exit.loopexit, %36
  %44 = phi ptr [ %.pre24, %nghttp2_bufs_free.exit.loopexit ], [ %37, %36 ]
  %45 = phi ptr [ %.pre, %nghttp2_bufs_free.exit.loopexit ], [ %38, %36 ]
  store ptr %9, ptr %0, align 8, !tbaa !18
  %46 = getelementptr inbounds nuw i8, ptr %0, i64 8
  store ptr %9, ptr %46, align 8, !tbaa !19
  %47 = load i64, ptr %3, align 8, !tbaa !17
  %48 = getelementptr inbounds nuw i8, ptr %9, i64 24
  %49 = getelementptr inbounds nuw i8, ptr %45, i64 %47
  store ptr %49, ptr %48, align 8, !tbaa !20
  %50 = getelementptr inbounds nuw i8, ptr %9, i64 32
  %51 = getelementptr inbounds nuw i8, ptr %44, i64 %47
  store ptr %51, ptr %50, align 8, !tbaa !22
  %52 = getelementptr inbounds nuw i8, ptr %0, i64 24
  store i64 %1, ptr %52, align 8, !tbaa !23
  %53 = getelementptr inbounds nuw i8, ptr %0, i64 40
  store i64 1, ptr %53, align 8, !tbaa !24
  br label %buf_chain_new.exit

buf_chain_new.exit:                               ; preds = %nghttp2_buf_init2.exit.i, %6, %2, %nghttp2_bufs_free.exit
  %.0 = phi i32 [ 0, %nghttp2_bufs_free.exit ], [ -501, %2 ], [ -901, %nghttp2_buf_init2.exit.i ], [ -901, %6 ]
  ret i32 %.0
}